Certificate:
    Data:
        Version: 3 (0x2)
        Serial Number:
            83:fe:e2:31:e1:c5:28:8e
    Signature Algorithm: sha256WithRSAEncryption
        Issuer: C=US, ST=Colorado, O=Bill Wunder, OU=sqlpal, CN=Bill Wunder/emailAddress=bwunder@yahoo.com
        Validity
            Not Before: Oct 15 14:33:41 2017 GMT
            Not After : Oct 14 14:33:41 2020 GMT
        Subject: C=US, ST=Colorado, O=Bill Wunder, OU=sqlpal, CN=Bill Wunder/emailAddress=bwunder@yahoo.com
        Subject Public Key Info:
            Public Key Algorithm: rsaEncryption
                Public-Key: (1024 bit)
                Modulus:
                    00:ac:45:51:0d:d9:cb:aa:dd:7b:91:ab:44:06:57:
                    f8:1c:18:b2:e1:bb:1c:c7:00:b4:7c:8c:34:78:0b:
                    77:d1:48:cf:d7:9d:87:2b:77:bd:8a:5f:ce:6d:d9:
                    e2:c9:24:cd:ce:fe:e5:07:e6:fa:b1:f4:44:eb:aa:
                    75:cc:55:bd:2f:40:ab:a8:a3:d3:24:ff:a6:eb:a8:
                    d3:a7:f7:37:d3:09:56:ea:0b:49:17:4f:e5:0d:9b:
                    63:d7:84:67:5f:bc:cb:74:ba:ce:49:35:fc:58:33:
                    71:6e:8b:87:af:3b:9f:59:11:a2:cf:92:76:ee:80:
                    45:77:8a:3b:37:4d:79:fc:09
                Exponent: 65537 (0x10001)
        X509v3 extensions:
            X509v3 Subject Key Identifier: 
                74:CC:92:6F:D8:43:2D:C9:6C:B7:20:FA:04:9B:05:9B:99:CA:CE:7E
            X509v3 Authority Key Identifier: 
                keyid:74:CC:92:6F:D8:43:2D:C9:6C:B7:20:FA:04:9B:05:9B:99:CA:CE:7E

            X509v3 Basic Constraints: 
                CA:TRUE
    Signature Algorithm: sha256WithRSAEncryption
         8b:d4:da:19:83:38:79:d9:d7:ee:99:a3:85:4e:e9:c7:93:a5:
         b9:3c:ce:64:e7:5e:41:d7:ad:cb:fa:02:2f:f9:fd:1c:fa:df:
         bb:ad:b7:46:7f:9c:48:88:01:e6:68:72:a1:7e:0c:b2:53:71:
         36:bc:77:4f:12:6f:a6:7d:c0:e0:db:c4:17:20:1a:00:74:ec:
         8b:44:aa:9b:0d:66:a8:79:09:9a:e2:9b:ae:c6:f8:46:65:f9:
         b5:3c:f1:ae:d2:f0:7f:e8:a9:90:e5:67:82:ed:da:69:43:67:
         65:9c:99:71:c2:70:54:73:b6:9d:ad:41:61:04:e8:e3:d0:52:
         e6:12
-----BEGIN CERTIFICATE-----
MIICzDCCAjWgAwIBAgIJAIP+4jHhxSiOMA0GCSqGSIb3DQEBCwUAMH8xCzAJBgNV
BAYTAlVTMREwDwYDVQQIDAhDb2xvcmFkbzEUMBIGA1UECgwLQmlsbCBXdW5kZXIx
DzANBgNVBAsMBnNxbHBhbDEUMBIGA1UEAwwLQmlsbCBXdW5kZXIxIDAeBgkqhkiG
9w0BCQEWEWJ3dW5kZXJAeWFob28uY29tMB4XDTE3MTAxNTE0MzM0MVoXDTIwMTAx
NDE0MzM0MVowfzELMAkGA1UEBhMCVVMxETAPBgNVBAgMCENvbG9yYWRvMRQwEgYD
VQQKDAtCaWxsIFd1bmRlcjEPMA0GA1UECwwGc3FscGFsMRQwEgYDVQQDDAtCaWxs
IFd1bmRlcjEgMB4GCSqGSIb3DQEJARYRYnd1bmRlckB5YWhvby5jb20wgZ8wDQYJ
KoZIhvcNAQEBBQADgY0AMIGJAoGBAKxFUQ3Zy6rde5GrRAZX+BwYsuG7HMcAtHyM
NHgLd9FIz9edhyt3vYpfzm3Z4skkzc7+5Qfm+rH0ROuqdcxVvS9Aq6ij0yT/puuo
06f3N9MJVuoLSRdP5Q2bY9eEZ1+8y3S6zkk1/FgzcW6Lh687n1kRos+Sdu6ARXeK
OzdNefwJAgMBAAGjUDBOMB0GA1UdDgQWBBR0zJJv2EMtyWy3IPoEmwWbmcrOfjAf
BgNVHSMEGDAWgBR0zJJv2EMtyWy3IPoEmwWbmcrOfjAMBgNVHRMEBTADAQH/MA0G
CSqGSIb3DQEBCwUAA4GBAIvU2hmDOHnZ1+6Zo4VO6ceTpbk8zmTnXkHXrcv6Ai/5
/Rz637utt0Z/nEiIAeZocqF+DLJTcTa8d08Sb6Z9wODbxBcgGgB07ItEqpsNZqh5
CZrim67G+EZl+bU88a7S8H/oqZDlZ4Lt2mlDZ2WcmXHCcFRztp2tQWEE6OPQUuYS
-----END CERTIFICATE-----
